; Function Attrs: nounwind uwtable
define ptr @l_Lean_Elab_Deriving_FromToJson_mkToJsonBody(ptr noundef readonly captures(none) %0, ptr noundef %1, ptr noundef %2, ptr noundef %3, ptr noundef %4, ptr noundef %5, ptr noundef %6, ptr noundef %7, ptr noundef %8, ptr noundef %9) local_unnamed_addr #0 {
  %11 = tail call ptr @l_Lean_Expr_getAppFn(ptr noundef %2) #5
  %12 = tail call ptr @l_Lean_Expr_constName_x21(ptr noundef %11) #5
  %13 = ptrtoint ptr %11 to i64
  %14 = and i64 %13, 1
  %.not = icmp eq i64 %14, 0
  br i1 %.not, label %15, label %lean_dec.exit54

15:                                               ; preds = %10
  %16 = load i32, ptr %11, align 4, !tbaa !8
  %17 = icmp sgt i32 %16, 1
  br i1 %17, label %18, label %20, !prof !11

18:                                               ; preds = %15
  %19 = add nsw i32 %16, -1
  store i32 %19, ptr %11, align 4, !tbaa !8
  br label %lean_dec.exit54

20:                                               ; preds = %15
  %.not.i = icmp eq i32 %16, 0
  br i1 %.not.i, label %lean_dec.exit54, label %21

21:                                               ; preds = %20
  tail call void @lean_dec_ref_cold(ptr noundef nonnull %11) #5
  br label %lean_dec.exit54

lean_dec.exit54:                                  ; preds = %21, %20, %18, %10
  %22 = tail call ptr @lean_st_ref_get(ptr noundef %8, ptr noundef %9) #5
  %23 = getelementptr inbounds nuw i8, ptr %22, i64 8
  %24 = load ptr, ptr %23, align 8, !tbaa !4
  %25 = ptrtoint ptr %24 to i64
  %26 = and i64 %25, 1
  %.not81 = icmp eq i64 %26, 0
  br i1 %.not81, label %27, label %lean_inc.exit46

27:                                               ; preds = %lean_dec.exit54
  %.val.i = load i32, ptr %24, align 4, !tbaa !8
  %28 = icmp sgt i32 %.val.i, 0
  br i1 %28, label %29, label %31, !prof !11

29:                                               ; preds = %27
  %30 = add nuw i32 %.val.i, 1
  store i32 %30, ptr %24, align 4, !tbaa !8
  br label %lean_inc.exit46

31:                                               ; preds = %27
  %.not.i71 = icmp eq i32 %.val.i, 0
  br i1 %.not.i71, label %lean_inc.exit46, label %32

32:                                               ; preds = %31
  tail call void @lean_inc_ref_cold(ptr noundef nonnull %24) #5
  br label %lean_inc.exit46

lean_inc.exit46:                                  ; preds = %32, %31, %29, %lean_dec.exit54
  %33 = getelementptr inbounds nuw i8, ptr %22, i64 16
  %34 = load ptr, ptr %33, align 8, !tbaa !4
  %35 = ptrtoint ptr %34 to i64
  %36 = and i64 %35, 1
  %.not82 = icmp eq i64 %36, 0
  br i1 %.not82, label %37, label %lean_inc.exit45

37:                                               ; preds = %lean_inc.exit46
  %.val.i72 = load i32, ptr %34, align 4, !tbaa !8
  %38 = icmp sgt i32 %.val.i72, 0
  br i1 %38, label %39, label %41, !prof !11

39:                                               ; preds = %37
  %40 = add nuw i32 %.val.i72, 1
  store i32 %40, ptr %34, align 4, !tbaa !8
  br label %lean_inc.exit45

41:                                               ; preds = %37
  %.not.i73 = icmp eq i32 %.val.i72, 0
  br i1 %.not.i73, label %lean_inc.exit45, label %42

42:                                               ; preds = %41
  tail call void @lean_inc_ref_cold(ptr noundef nonnull %34) #5
  br label %lean_inc.exit45

lean_inc.exit45:                                  ; preds = %42, %41, %39, %lean_inc.exit46
  %43 = ptrtoint ptr %22 to i64
  %44 = and i64 %43, 1
  %.not83 = icmp eq i64 %44, 0
  br i1 %.not83, label %45, label %lean_dec.exit53

45:                                               ; preds = %lean_inc.exit45
  %46 = load i32, ptr %22, align 4, !tbaa !8
  %47 = icmp sgt i32 %46, 1
  br i1 %47, label %48, label %50, !prof !11

48:                                               ; preds = %45
  %49 = add nsw i32 %46, -1
  store i32 %49, ptr %22, align 4, !tbaa !8
  br label %lean_dec.exit53

50:                                               ; preds = %45
  %.not.i55 = icmp eq i32 %46, 0
  br i1 %.not.i55, label %lean_dec.exit53, label %51

51:                                               ; preds = %50
  tail call void @lean_dec_ref_cold(ptr noundef nonnull %22) #5
  br label %lean_dec.exit53

lean_dec.exit53:                                  ; preds = %51, %50, %48, %lean_inc.exit45
  %52 = getelementptr inbounds nuw i8, ptr %24, i64 8
  %53 = load ptr, ptr %52, align 8, !tbaa !4
  %54 = ptrtoint ptr %53 to i64
  %55 = and i64 %54, 1
  %.not84 = icmp eq i64 %55, 0
  br i1 %.not84, label %56, label %lean_inc.exit44

56:                                               ; preds = %lean_dec.exit53
  %.val.i75 = load i32, ptr %53, align 4, !tbaa !8
  %57 = icmp sgt i32 %.val.i75, 0
  br i1 %57, label %58, label %60, !prof !11

58:                                               ; preds = %56
  %59 = add nuw i32 %.val.i75, 1
  store i32 %59, ptr %53, align 4, !tbaa !8
  br label %lean_inc.exit44

60:                                               ; preds = %56
  %.not.i76 = icmp eq i32 %.val.i75, 0
  br i1 %.not.i76, label %lean_inc.exit44, label %61

61:                                               ; preds = %60
  tail call void @lean_inc_ref_cold(ptr noundef nonnull %53) #5
  br label %lean_inc.exit44

lean_inc.exit44:                                  ; preds = %61, %60, %58, %lean_dec.exit53
  br i1 %.not81, label %62, label %lean_dec.exit52

62:                                               ; preds = %lean_inc.exit44
  %63 = load i32, ptr %24, align 4, !tbaa !8
  %64 = icmp sgt i32 %63, 1
  br i1 %64, label %65, label %67, !prof !11

65:                                               ; preds = %62
  %66 = add nsw i32 %63, -1
  store i32 %66, ptr %24, align 4, !tbaa !8
  br label %lean_dec.exit52

67:                                               ; preds = %62
  %.not.i57 = icmp eq i32 %63, 0
  br i1 %.not.i57, label %lean_dec.exit52, label %68

68:                                               ; preds = %67
  tail call void @lean_dec_ref_cold(ptr noundef nonnull %24) #5
  br label %lean_dec.exit52

lean_dec.exit52:                                  ; preds = %68, %67, %65, %lean_inc.exit44
  %69 = ptrtoint ptr %12 to i64
  %70 = and i64 %69, 1
  %.not85 = icmp eq i64 %70, 0
  br i1 %.not85, label %71, label %lean_inc.exit

71:                                               ; preds = %lean_dec.exit52
  %.val.i78 = load i32, ptr %12, align 4, !tbaa !8
  %72 = icmp sgt i32 %.val.i78, 0
  br i1 %72, label %73, label %75, !prof !11

73:                                               ; preds = %71
  %74 = add nuw i32 %.val.i78, 1
  store i32 %74, ptr %12, align 4, !tbaa !8
  br label %lean_inc.exit

75:                                               ; preds = %71
  %.not.i79 = icmp eq i32 %.val.i78, 0
  br i1 %.not.i79, label %lean_inc.exit, label %76

76:                                               ; preds = %75
  tail call void @lean_inc_ref_cold(ptr noundef nonnull %12) #5
  br label %lean_inc.exit

lean_inc.exit:                                    ; preds = %76, %75, %73, %lean_dec.exit52
  %77 = tail call zeroext i8 @l_Lean_isStructure(ptr noundef %53, ptr noundef %12) #5
  %78 = icmp eq i8 %77, 0
  br i1 %78, label %79, label %81

79:                                               ; preds = %lean_inc.exit
  %80 = tail call ptr @l_Lean_Elab_Deriving_FromToJson_mkToJsonBodyForInduct(ptr noundef %0, ptr noundef %1, ptr noundef %12, ptr noundef %3, ptr noundef %4, ptr noundef %5, ptr noundef %6, ptr noundef %7, ptr noundef %8, ptr noundef %34)
  br label %lean_dec.exit

81:                                               ; preds = %lean_inc.exit
  %82 = tail call ptr @l_Lean_Elab_Deriving_FromToJson_mkToJsonBodyForStruct(ptr noundef %1, ptr noundef %12, ptr poison, ptr poison, ptr poison, ptr poison, ptr noundef %7, ptr noundef %8, ptr noundef %34)
  %83 = ptrtoint ptr %8 to i64
  %84 = and i64 %83, 1
  %.not86 = icmp eq i64 %84, 0
  br i1 %.not86, label %85, label %lean_dec.exit51

85:                                               ; preds = %81
  %86 = load i32, ptr %8, align 4, !tbaa !8
  %87 = icmp sgt i32 %86, 1
  br i1 %87, label %88, label %90, !prof !11

88:                                               ; preds = %85
  %89 = add nsw i32 %86, -1
  store i32 %89, ptr %8, align 4, !tbaa !8
  br label %lean_dec.exit51

90:                                               ; preds = %85
  %.not.i59 = icmp eq i32 %86, 0
  br i1 %.not.i59, label %lean_dec.exit51, label %91

91:                                               ; preds = %90
  tail call void @lean_dec_ref_cold(ptr noundef nonnull %8) #5
  br label %lean_dec.exit51

lean_dec.exit51:                                  ; preds = %91, %90, %88, %81
  %92 = ptrtoint ptr %6 to i64
  %93 = and i64 %92, 1
  %.not87 = icmp eq i64 %93, 0
  br i1 %.not87, label %94, label %lean_dec.exit50

94:                                               ; preds = %lean_dec.exit51
  %95 = load i32, ptr %6, align 4, !tbaa !8
  %96 = icmp sgt i32 %95, 1
  br i1 %96, label %97, label %99, !prof !11

97:                                               ; preds = %94
  %98 = add nsw i32 %95, -1
  store i32 %98, ptr %6, align 4, !tbaa !8
  br label %lean_dec.exit50

99:                                               ; preds = %94
  %.not.i61 = icmp eq i32 %95, 0
  br i1 %.not.i61, label %lean_dec.exit50, label %100

100:                                              ; preds = %99
  tail call void @lean_dec_ref_cold(ptr noundef nonnull %6) #5
  br label %lean_dec.exit50

lean_dec.exit50:                                  ; preds = %100, %99, %97, %lean_dec.exit51
  %101 = ptrtoint ptr %5 to i64
  %102 = and i64 %101, 1
  %.not88 = icmp eq i64 %102, 0
  br i1 %.not88, label %103, label %lean_dec.exit49

103:                                              ; preds = %lean_dec.exit50
  %104 = load i32, ptr %5, align 4, !tbaa !8
  %105 = icmp sgt i32 %104, 1
  br i1 %105, label %106, label %108, !prof !11

106:                                              ; preds = %103
  %107 = add nsw i32 %104, -1
  store i32 %107, ptr %5, align 4, !tbaa !8
  br label %lean_dec.exit49

108:                                              ; preds = %103
  %.not.i63 = icmp eq i32 %104, 0
  br i1 %.not.i63, label %lean_dec.exit49, label %109

109:                                              ; preds = %108
  tail call void @lean_dec_ref_cold(ptr noundef nonnull %5) #5
  br label %lean_dec.exit49

lean_dec.exit49:                                  ; preds = %109, %108, %106, %lean_dec.exit50
  %110 = ptrtoint ptr %4 to i64
  %111 = and i64 %110, 1
  %.not89 = icmp eq i64 %111, 0
  br i1 %.not89, label %112, label %lean_dec.exit48

112:                                              ; preds = %lean_dec.exit49
  %113 = load i32, ptr %4, align 4, !tbaa !8
  %114 = icmp sgt i32 %113, 1
  br i1 %114, label %115, label %117, !prof !11

115:                                              ; preds = %112
  %116 = add nsw i32 %113, -1
  store i32 %116, ptr %4, align 4, !tbaa !8
  br label %lean_dec.exit48

117:                                              ; preds = %112
  %.not.i65 = icmp eq i32 %113, 0
  br i1 %.not.i65, label %lean_dec.exit48, label %118

118:                                              ; preds = %117
  tail call void @lean_dec_ref_cold(ptr noundef nonnull %4) #5
  br label %lean_dec.exit48

lean_dec.exit48:                                  ; preds = %118, %117, %115, %lean_dec.exit49
  %119 = ptrtoint ptr %3 to i64
  %120 = and i64 %119, 1
  %.not90 = icmp eq i64 %120, 0
  br i1 %.not90, label %121, label %lean_dec.exit47

121:                                              ; preds = %lean_dec.exit48
  %122 = load i32, ptr %3, align 4, !tbaa !8
  %123 = icmp sgt i32 %122, 1
  br i1 %123, label %124, label %126, !prof !11

124:                                              ; preds = %121
  %125 = add nsw i32 %122, -1
  store i32 %125, ptr %3, align 4, !tbaa !8
  br label %lean_dec.exit47

126:                                              ; preds = %121
  %.not.i67 = icmp eq i32 %122, 0
  br i1 %.not.i67, label %lean_dec.exit47, label %127

127:                                              ; preds = %126
  tail call void @lean_dec_ref_cold(ptr noundef nonnull %3) #5
  br label %lean_dec.exit47

lean_dec.exit47:                                  ; preds = %127, %126, %124, %lean_dec.exit48
  %128 = ptrtoint ptr %1 to i64
  %129 = and i64 %128, 1
  %.not91 = icmp eq i64 %129, 0
  br i1 %.not91, label %130, label %lean_dec.exit

130:                                              ; preds = %lean_dec.exit47
  %131 = load i32, ptr %1, align 4, !tbaa !8
  %132 = icmp sgt i32 %131, 1
  br i1 %132, label %133, label %135, !prof !11

133:                                              ; preds = %130
  %134 = add nsw i32 %131, -1
  store i32 %134, ptr %1, align 4, !tbaa !8
  br label %lean_dec.exit

135:                                              ; preds = %130
  %.not.i69 = icmp eq i32 %131, 0
  br i1 %.not.i69, label %lean_dec.exit, label %136

136:                                              ; preds = %135
  tail call void @lean_dec_ref_cold(ptr noundef nonnull %1) #5
  br label %lean_dec.exit

lean_dec.exit:                                    ; preds = %lean_dec.exit47, %133, %135, %136, %79
  %.0 = phi ptr [ %80, %79 ], [ %82, %136 ], [ %82, %135 ], [ %82, %133 ], [ %82, %lean_dec.exit47 ]
  ret ptr %.0
}